; Function Attrs: nounwind uwtable
define hidden noalias ptr @mi_heap_malloc_aligned(ptr noundef %0, i64 noundef %1, i64 noundef %2) local_unnamed_addr #0 {
  %4 = tail call range(i64 0, 65) i64 @llvm.ctpop.i64(i64 range(i64 1, 0) %2)
  %or.cond.not.i.i = icmp eq i64 %4, 1
  br i1 %or.cond.not.i.i, label %5, label %mi_heap_malloc_aligned_at.exit, !prof !3

5:                                                ; preds = %3
  %6 = icmp ult i64 %1, 1025
  %7 = icmp ule i64 %2, %1
  %8 = and i1 %6, %7
  br i1 %8, label %9, label %.thread.i.i, !prof !4

9:                                                ; preds = %5
  %10 = add nuw nsw i64 %1, 7
  %11 = lshr i64 %10, 3
  %12 = getelementptr inbounds nuw i8, ptr %0, i64 232
  %13 = getelementptr inbounds nuw [129 x ptr], ptr %12, i64 0, i64 %11
  %14 = load ptr, ptr %13, align 8, !tbaa !5
  %15 = getelementptr inbounds nuw i8, ptr %14, i64 16
  %16 = load ptr, ptr %15, align 8, !tbaa !10
  %.not.i.i = icmp eq ptr %16, null
  br i1 %.not.i.i, label %.thread.i.i, label %17, !prof !17

17:                                               ; preds = %9
  %18 = add i64 %2, -1
  %19 = ptrtoint ptr %16 to i64
  %20 = and i64 %18, %19
  %.not36.i.i = icmp eq i64 %20, 0
  br i1 %.not36.i.i, label %21, label %.thread.i.i, !prof !4

21:                                               ; preds = %17
  %22 = tail call ptr @_mi_page_malloc(ptr noundef nonnull %0, ptr noundef nonnull %14, i64 noundef %1) #8
  br label %mi_heap_malloc_aligned_at.exit

.thread.i.i:                                      ; preds = %17, %9, %5
  %23 = tail call fastcc ptr @mi_heap_malloc_zero_aligned_at_generic(ptr noundef %0, i64 noundef %1, i64 noundef %2, i64 noundef 0, i1 noundef zeroext false) #9
  br label %mi_heap_malloc_aligned_at.exit

mi_heap_malloc_aligned_at.exit:                   ; preds = %3, %21, %.thread.i.i
  %.030.i.i = phi ptr [ %23, %.thread.i.i ], [ null, %3 ], [ %22, %21 ]
  ret ptr %.030.i.i
}